target datalayout = "e-m:e-p270:32:32-p271:32:32-p272:64:64-i64:64-i128:128-f80:128-n8:16:32:64-S128"
target triple = "x86_64-pc-linux-gnu"

%struct.JNINativeInterface_ = type { ptr, ptr, ptr, ptr, ptr, ptr, ptr, ptr, ptr, ptr, ptr, ptr, ptr, ptr, ptr, ptr, ptr, ptr, ptr, ptr, ptr, ptr, ptr, ptr, ptr, ptr, ptr, ptr, ptr, ptr, ptr, ptr, ptr, ptr, ptr, ptr, ptr, ptr, ptr, ptr, ptr, ptr, ptr, ptr, ptr, ptr, ptr, ptr, ptr, ptr, ptr, ptr, ptr, ptr, ptr, ptr, ptr, ptr, ptr, ptr, ptr, ptr, ptr, ptr, ptr, ptr, ptr, ptr, ptr, ptr, ptr, ptr, ptr, ptr, ptr, ptr, ptr, ptr, ptr, ptr, ptr, ptr, ptr, ptr, ptr, ptr, ptr, ptr, ptr, ptr, ptr, ptr, ptr, ptr, ptr, ptr, ptr, ptr, ptr, ptr, ptr, ptr, ptr, ptr, ptr, ptr, ptr, ptr, ptr, ptr, ptr, ptr, ptr, ptr, ptr, ptr, ptr, ptr, ptr, ptr, ptr, ptr, ptr, ptr, ptr, ptr, ptr, ptr, ptr, ptr, ptr, ptr, ptr, ptr, ptr, ptr, ptr, ptr, ptr, ptr, ptr, ptr, ptr, ptr, ptr, ptr, ptr, ptr, ptr, ptr, ptr, ptr, ptr, ptr, ptr, ptr, ptr, ptr, ptr, ptr, ptr, ptr, ptr, ptr, ptr, ptr, ptr, ptr, ptr, ptr, ptr, ptr, ptr, ptr, ptr, ptr, ptr, ptr, ptr, ptr, ptr, ptr, ptr, ptr, ptr, ptr, ptr, ptr, ptr, ptr, ptr, ptr, ptr, ptr, ptr, ptr, ptr, ptr, ptr, ptr, ptr, ptr, ptr, ptr, ptr, ptr, ptr, ptr, ptr, ptr, ptr, ptr, ptr, ptr, ptr, ptr, ptr, ptr, ptr, ptr, ptr, ptr, ptr, ptr, ptr, ptr, ptr, ptr, ptr, ptr, ptr, ptr, ptr, ptr, ptr }
%struct.GSS_FUNCTION_TABLE = type { ptr, ptr, ptr, ptr, ptr, ptr, ptr, ptr, ptr, ptr, ptr, ptr, ptr, ptr, ptr, ptr, ptr, ptr, ptr, ptr, ptr, ptr, ptr, ptr, ptr, ptr, ptr, ptr, ptr }

@JGSS_DEBUG = external global i32, align 4
@stderr = external global ptr, align 8
@ftab = external global ptr, align 8
@.str.23 = private unnamed_addr constant [46 x i8] c"[GSSLibStub:%d] [GSSLibStub_releaseCred] %ld\0A\00", align 1
@.str.24 = private unnamed_addr constant [25 x i8] c"[GSSLibStub_releaseCred]\00", align 1

; Function Attrs: nounwind uwtable
define i64 @Java_sun_security_jgss_wrapper_GSSLibStub_releaseCred(ptr noundef %0, ptr noundef %1, i64 noundef %2) #0 {
  %4 = alloca i64, align 8
  %5 = alloca ptr, align 8
  %6 = alloca ptr, align 8
  %7 = alloca i64, align 8
  %8 = alloca i32, align 4
  %9 = alloca i32, align 4
  %10 = alloca ptr, align 8
  store ptr %0, ptr %5, align 8
  store ptr %1, ptr %6, align 8
  store i64 %2, ptr %7, align 8
  %11 = load i64, ptr %7, align 8
  %12 = inttoptr i64 %11 to ptr
  store ptr %12, ptr %10, align 8
  %13 = load i32, ptr @JGSS_DEBUG, align 4
  %14 = icmp ne i32 %13, 0
  br i1 %14, label %15, label %21

15:                                               ; preds = %3
  %16 = load ptr, ptr @stderr, align 8
  %17 = load i64, ptr %7, align 8
  %18 = call i32 (ptr, ptr, ...) @fprintf(ptr noundef %16, ptr noundef @.str.23, i32 noundef 673, i64 noundef %17) #5
  %19 = load ptr, ptr @stderr, align 8
  %20 = call i32 @fflush(ptr noundef %19)
  br label %21

21:                                               ; preds = %15, %3
  %22 = load ptr, ptr %10, align 8
  %23 = icmp ne ptr %22, null
  br i1 %23, label %24, label %42

24:                                               ; preds = %21
  %25 = load ptr, ptr @ftab, align 8
  %26 = getelementptr inbounds %struct.GSS_FUNCTION_TABLE, ptr %25, i32 0, i32 8
  %27 = load ptr, ptr %26, align 8
  %28 = call i32 %27(ptr noundef %8, ptr noundef %10)
  store i32 %28, ptr %9, align 4
  %29 = load ptr, ptr %5, align 8
  %30 = load ptr, ptr %6, align 8
  %31 = load i32, ptr %9, align 4
  %32 = load i32, ptr %8, align 4
  call void @checkStatus(ptr noundef %29, ptr noundef %30, i32 noundef %31, i32 noundef %32, ptr noundef @.str.24)
  %33 = load ptr, ptr %5, align 8
  %34 = load ptr, ptr %33, align 8
  %35 = getelementptr inbounds %struct.JNINativeInterface_, ptr %34, i32 0, i32 228
  %36 = load ptr, ptr %35, align 8
  %37 = load ptr, ptr %5, align 8
  %38 = call zeroext i8 %36(ptr noundef %37)
  %39 = icmp ne i8 %38, 0
  br i1 %39, label %40, label %41

40:                                               ; preds = %24
  store i64 0, ptr %4, align 8
  br label %45

41:                                               ; preds = %24
  br label %42

42:                                               ; preds = %41, %21
  %43 = load ptr, ptr %10, align 8
  %44 = ptrtoint ptr %43 to i64
  store i64 %44, ptr %4, align 8
  br label %45

45:                                               ; preds = %42, %40
  %46 = load i64, ptr %4, align 8
  ret i64 %46
}