; Function Attrs: nounwind uwtable
define i64 @Java_sun_security_jgss_wrapper_GSSLibStub_releaseCred(ptr noundef %0, ptr noundef %1, i64 noundef %2) local_unnamed_addr #0 {
  %4 = alloca i32, align 4
  %5 = alloca ptr, align 8
  %6 = inttoptr i64 %2 to ptr
  store ptr %6, ptr %5, align 8
  %7 = load i32, ptr @JGSS_DEBUG, align 4
  %.not = icmp eq i32 %7, 0
  br i1 %.not, label %13, label %8

8:                                                ; preds = %3
  %9 = load ptr, ptr @stderr, align 8
  %10 = tail call i32 (ptr, ptr, ...) @fprintf(ptr noundef %9, ptr noundef nonnull @.str.23, i32 noundef 673, i64 noundef %2) #8
  %11 = load ptr, ptr @stderr, align 8
  %12 = tail call i32 @fflush(ptr noundef %11)
  br label %13

13:                                               ; preds = %8, %3
  %.not7 = icmp eq i64 %2, 0
  br i1 %.not7, label %25, label %14

14:                                               ; preds = %13
  %15 = load ptr, ptr @ftab, align 8
  %16 = getelementptr inbounds i8, ptr %15, i64 64
  %17 = load ptr, ptr %16, align 8
  %18 = call i32 %17(ptr noundef nonnull %4, ptr noundef nonnull %5) #9
  %19 = load i32, ptr %4, align 4
  call void @checkStatus(ptr noundef %0, ptr noundef %1, i32 noundef %18, i32 noundef %19, ptr noundef nonnull @.str.24) #9
  %20 = load ptr, ptr %0, align 8
  %21 = getelementptr inbounds i8, ptr %20, i64 1824
  %22 = load ptr, ptr %21, align 8
  %23 = call zeroext i8 %22(ptr noundef nonnull %0) #9
  %.not8 = icmp eq i8 %23, 0
  br i1 %.not8, label %._crit_edge, label %25

._crit_edge:                                      ; preds = %14
  %.pre = load ptr, ptr %5, align 8
  %24 = ptrtoint ptr %.pre to i64
  br label %25

25:                                               ; preds = %13, %._crit_edge, %14
  %.0 = phi i64 [ 0, %14 ], [ %24, %._crit_edge ], [ 0, %13 ]
  ret i64 %.0
}